target datalayout = "e-m:e-p270:32:32-p271:32:32-p272:64:64-i64:64-i128:128-f80:128-n8:16:32:64-S128"
target triple = "x86_64-pc-linux-gnu"

%struct._sapi_globals_struct = type { ptr, %struct.sapi_request_info, %struct.sapi_headers_struct, i64, i8, i8, %struct.stat, ptr, ptr, ptr, i64, i32, i8, double, %struct._zend_array, %struct._zval_struct, %struct._zend_fcall_info_cache, %struct.sapi_request_parse_body_context }
%struct.sapi_request_info = type { ptr, ptr, ptr, i64, ptr, ptr, ptr, ptr, i8, i8, i8, ptr, ptr, ptr, ptr, ptr, ptr, ptr, i32, i32, ptr, i32 }
%struct.sapi_headers_struct = type { %struct._zend_llist, i32, i8, ptr, ptr }
%struct._zend_llist = type { ptr, ptr, i64, i64, ptr, i8, ptr }
%struct.stat = type { i64, i64, i64, i32, i32, i32, i32, i64, i64, i64, i64, %struct.timespec, %struct.timespec, %struct.timespec, [3 x i64] }
%struct.timespec = type { i64, i64 }
%struct._zend_array = type { %struct._zend_refcounted_h, %union.anon.0, i32, %union.anon.1, i32, i32, i32, i32, i64, ptr }
%struct._zend_refcounted_h = type { i32, %union.anon }
%union.anon = type { i32 }
%union.anon.0 = type { i32 }
%union.anon.1 = type { ptr }
%struct._zval_struct = type { %union._zend_value, %union.anon.3, %union.anon.6 }
%union._zend_value = type { i64 }
%union.anon.3 = type { i32 }
%union.anon.6 = type { i32 }
%struct._zend_fcall_info_cache = type { ptr, ptr, ptr, ptr, ptr }
%struct.sapi_request_parse_body_context = type { i8, [5 x %struct.anon.7] }
%struct.anon.7 = type { i8, i64 }
%struct._zend_string = type { %struct._zend_refcounted_h, i64, i64, [1 x i8] }

@sapi_globals = external global %struct._sapi_globals_struct, align 8
@.str.15 = private unnamed_addr constant [3 x i8] c"%s\00", align 1
@.str.16 = private unnamed_addr constant [38 x i8] c"Invalid %s value in $options argument\00", align 1

; Function Attrs: nounwind uwtable
define internal i32 @cache_request_parse_body_option(ptr noundef %0, ptr noundef %1, i32 noundef %2) #0 {
  %4 = alloca ptr, align 8
  %5 = alloca i32, align 4
  %6 = alloca i32, align 4
  %7 = alloca ptr, align 8
  %8 = alloca ptr, align 8
  %9 = alloca ptr, align 8
  %10 = alloca i32, align 4
  %11 = alloca ptr, align 8
  %12 = alloca ptr, align 8
  %13 = alloca i32, align 4
  %14 = alloca i64, align 8
  %15 = alloca ptr, align 8
  store ptr %0, ptr %11, align 8
  store ptr %1, ptr %12, align 8
  store i32 %2, ptr %13, align 4
  %16 = load ptr, ptr %12, align 8
  %17 = icmp ne ptr %16, null
  br i1 %17, label %18, label %94

18:                                               ; preds = %3
  %19 = load ptr, ptr %12, align 8
  store ptr %19, ptr %8, align 8
  %20 = load ptr, ptr %8, align 8
  %21 = getelementptr inbounds %struct._zval_struct, ptr %20, i32 0, i32 1
  %22 = load i8, ptr %21, align 8
  %23 = zext i8 %22 to i32
  %24 = icmp eq i32 %23, 6
  br i1 %24, label %25, label %69

25:                                               ; preds = %18
  %26 = load ptr, ptr %12, align 8
  %27 = getelementptr inbounds %struct._zval_struct, ptr %26, i32 0, i32 0
  %28 = load ptr, ptr %27, align 8
  %29 = call i64 @zend_ini_parse_quantity(ptr noundef %28, ptr noundef %15)
  store i64 %29, ptr %14, align 8
  %30 = load ptr, ptr %15, align 8
  %31 = icmp ne ptr %30, null
  br i1 %31, label %32, label %68

32:                                               ; preds = %25
  %33 = load ptr, ptr %15, align 8
  %34 = getelementptr inbounds %struct._zend_string, ptr %33, i32 0, i32 3
  %35 = getelementptr inbounds [1 x i8], ptr %34, i64 0, i64 0
  call void (i32, ptr, ...) @zend_error(i32 noundef 2, ptr noundef @.str.15, ptr noundef %35)
  %36 = load ptr, ptr %15, align 8
  store ptr %36, ptr %7, align 8
  %37 = load ptr, ptr %7, align 8
  %38 = getelementptr inbounds %struct._zend_refcounted_h, ptr %37, i32 0, i32 1
  %39 = load i32, ptr %38, align 4
  store i32 %39, ptr %5, align 4
  %40 = load i32, ptr %5, align 4
  %41 = and i32 %40, 1008
  %42 = and i32 %41, 64
  %43 = icmp ne i32 %42, 0
  br i1 %43, label %67, label %44

44:                                               ; preds = %32
  %45 = load ptr, ptr %7, align 8
  store ptr %45, ptr %4, align 8
  %46 = load ptr, ptr %4, align 8
  %47 = load i32, ptr %46, align 4
  %48 = icmp ugt i32 %47, 0
  call void @llvm.assume(i1 %48)
  %49 = load ptr, ptr %4, align 8
  %50 = load i32, ptr %49, align 4
  %51 = add i32 %50, -1
  store i32 %51, ptr %49, align 4
  %52 = icmp eq i32 %51, 0
  br i1 %52, label %53, label %66

53:                                               ; preds = %44
  %54 = load ptr, ptr %7, align 8
  %55 = getelementptr inbounds %struct._zend_refcounted_h, ptr %54, i32 0, i32 1
  %56 = load i32, ptr %55, align 4
  store i32 %56, ptr %6, align 4
  %57 = load i32, ptr %6, align 4
  %58 = and i32 %57, 1008
  %59 = and i32 %58, 128
  %60 = icmp ne i32 %59, 0
  br i1 %60, label %61, label %63

61:                                               ; preds = %53
  %62 = load ptr, ptr %7, align 8
  call void @free(ptr noundef %62) #9
  br label %65

63:                                               ; preds = %53
  %64 = load ptr, ptr %7, align 8
  call void @_efree(ptr noundef %64) #9
  br label %65

65:                                               ; preds = %63, %61
  br label %66

66:                                               ; preds = %65, %44
  br label %67

67:                                               ; preds = %66, %32
  br label %68

68:                                               ; preds = %67, %25
  br label %84

69:                                               ; preds = %18
  %70 = load ptr, ptr %12, align 8
  store ptr %70, ptr %9, align 8
  %71 = load ptr, ptr %9, align 8
  %72 = getelementptr inbounds %struct._zval_struct, ptr %71, i32 0, i32 1
  %73 = load i8, ptr %72, align 8
  %74 = zext i8 %73 to i32
  %75 = icmp eq i32 %74, 4
  br i1 %75, label %76, label %80

76:                                               ; preds = %69
  %77 = load ptr, ptr %12, align 8
  %78 = getelementptr inbounds %struct._zval_struct, ptr %77, i32 0, i32 0
  %79 = load i64, ptr %78, align 8
  store i64 %79, ptr %14, align 8
  br label %83

80:                                               ; preds = %69
  %81 = load ptr, ptr %12, align 8
  %82 = call ptr @zend_zval_value_name(ptr noundef %81)
  call void (ptr, ...) @zend_value_error(ptr noundef @.str.16, ptr noundef %82)
  store i32 -1, ptr %10, align 4
  br label %100

83:                                               ; preds = %76
  br label %84

84:                                               ; preds = %83, %68
  %85 = load i32, ptr %13, align 4
  %86 = sext i32 %85 to i64
  %87 = getelementptr inbounds [5 x %struct.anon.7], ptr getelementptr inbounds (%struct._sapi_globals_struct, ptr @sapi_globals, i32 0, i32 17, i32 1), i64 0, i64 %86
  %88 = getelementptr inbounds %struct.anon.7, ptr %87, i32 0, i32 0
  store i8 1, ptr %88, align 8
  %89 = load i64, ptr %14, align 8
  %90 = load i32, ptr %13, align 4
  %91 = sext i32 %90 to i64
  %92 = getelementptr inbounds [5 x %struct.anon.7], ptr getelementptr inbounds (%struct._sapi_globals_struct, ptr @sapi_globals, i32 0, i32 17, i32 1), i64 0, i64 %91
  %93 = getelementptr inbounds %struct.anon.7, ptr %92, i32 0, i32 1
  store i64 %89, ptr %93, align 8
  br label %99

94:                                               ; preds = %3
  %95 = load i32, ptr %13, align 4
  %96 = sext i32 %95 to i64
  %97 = getelementptr inbounds [5 x %struct.anon.7], ptr getelementptr inbounds (%struct._sapi_globals_struct, ptr @sapi_globals, i32 0, i32 17, i32 1), i64 0, i64 %96
  %98 = getelementptr inbounds %struct.anon.7, ptr %97, i32 0, i32 0
  store i8 0, ptr %98, align 8
  br label %99

99:                                               ; preds = %94, %84
  store i32 0, ptr %10, align 4
  br label %100

100:                                              ; preds = %99, %80
  %101 = load i32, ptr %10, align 4
  ret i32 %101
}