; Function Attrs: nounwind uwtable
define internal fastcc noundef i32 @cache_request_parse_body_option(ptr noundef %0, i32 noundef %1) unnamed_addr #0 {
  %3 = alloca ptr, align 8
  %.not = icmp eq ptr %0, null
  br i1 %.not, label %34, label %4

4:                                                ; preds = %2
  %5 = getelementptr inbounds i8, ptr %0, i64 8
  %6 = load i8, ptr %5, align 8
  switch i8 %6, label %28 [
    i8 6, label %7
    i8 4, label %26
  ]

7:                                                ; preds = %4
  %8 = load ptr, ptr %0, align 8
  %9 = call i64 @zend_ini_parse_quantity(ptr noundef %8, ptr noundef nonnull %3) #10
  %10 = load ptr, ptr %3, align 8
  %.not25 = icmp eq ptr %10, null
  br i1 %.not25, label %30, label %11

11:                                               ; preds = %7
  %12 = getelementptr inbounds i8, ptr %10, i64 24
  call void (i32, ptr, ...) @zend_error(i32 noundef 2, ptr noundef nonnull @.str.15, ptr noundef nonnull %12) #10
  %13 = load ptr, ptr %3, align 8
  %14 = getelementptr inbounds i8, ptr %13, i64 4
  %15 = load i32, ptr %14, align 4
  %16 = and i32 %15, 64
  %.not26 = icmp eq i32 %16, 0
  br i1 %.not26, label %17, label %30

17:                                               ; preds = %11
  %18 = load i32, ptr %13, align 4
  %19 = icmp ne i32 %18, 0
  call void @llvm.assume(i1 %19)
  %20 = add i32 %18, -1
  store i32 %20, ptr %13, align 4
  %21 = icmp eq i32 %20, 0
  br i1 %21, label %22, label %30

22:                                               ; preds = %17
  %23 = and i32 %15, 128
  %.not27 = icmp eq i32 %23, 0
  br i1 %.not27, label %25, label %24

24:                                               ; preds = %22
  call void @free(ptr noundef nonnull %13) #10
  br label %30

25:                                               ; preds = %22
  call void @_efree(ptr noundef nonnull %13) #10
  br label %30

26:                                               ; preds = %4
  %27 = load i64, ptr %0, align 8
  br label %30

28:                                               ; preds = %4
  %29 = tail call ptr @zend_zval_value_name(ptr noundef nonnull %0) #10
  tail call void (ptr, ...) @zend_value_error(ptr noundef nonnull @.str.16, ptr noundef %29) #10
  br label %37

30:                                               ; preds = %7, %17, %25, %24, %11, %26
  %.0 = phi i64 [ %9, %11 ], [ %9, %24 ], [ %9, %25 ], [ %9, %17 ], [ %9, %7 ], [ %27, %26 ]
  %31 = zext nneg i32 %1 to i64
  %32 = getelementptr inbounds %struct._sapi_globals_struct, ptr @sapi_globals, i64 0, i32 17, i32 1, i64 %31
  store i8 1, ptr %32, align 8
  %33 = getelementptr inbounds i8, ptr %32, i64 8
  store i64 %.0, ptr %33, align 8
  br label %37

34:                                               ; preds = %2
  %35 = zext nneg i32 %1 to i64
  %36 = getelementptr inbounds %struct._sapi_globals_struct, ptr @sapi_globals, i64 0, i32 17, i32 1, i64 %35
  store i8 0, ptr %36, align 8
  br label %37

37:                                               ; preds = %30, %34, %28
  %.021 = phi i32 [ -1, %28 ], [ 0, %34 ], [ 0, %30 ]
  ret i32 %.021
}